target datalayout = "e-m:e-p270:32:32-p271:32:32-p272:64:64-i64:64-i128:128-f80:128-n8:16:32:64-S128"
target triple = "x86_64-unknown-linux-gnu"

%"class.v8::Local" = type { %"class.v8::LocalBase" }
%"class.v8::LocalBase" = type { %"class.v8::IndirectHandleBase" }
%"class.v8::IndirectHandleBase" = type { ptr }
%"class.node::crypto::DiffieHellman" = type { %"class.node::BaseObject", i32, %"class.std::unique_ptr" }
%"class.node::BaseObject" = type { %"class.node::MemoryRetainer", %"class.v8::Global", ptr, ptr }
%"class.node::MemoryRetainer" = type { ptr }
%"class.v8::Global" = type { %"class.v8::PersistentBase" }
%"class.v8::PersistentBase" = type { %"class.v8::IndirectHandleBase" }
%"class.std::unique_ptr" = type { %"struct.std::__uniq_ptr_data" }
%"struct.std::__uniq_ptr_data" = type { %"class.std::__uniq_ptr_impl" }
%"class.std::__uniq_ptr_impl" = type { %"class.std::tuple" }
%"class.std::tuple" = type { %"struct.std::_Tuple_impl" }
%"struct.std::_Tuple_impl" = type { %"struct.std::_Head_base.1" }
%"struct.std::_Head_base.1" = type { ptr }
%"class.v8::Local.301" = type { %"class.v8::LocalBase.302" }
%"class.v8::LocalBase.302" = type { %"class.v8::IndirectHandleBase" }
%"class.v8::ReturnValue" = type { ptr }
%"class.v8::Local.565" = type { %"class.v8::LocalBase.566" }
%"class.v8::LocalBase.566" = type { %"class.v8::IndirectHandleBase" }
%"class.v8::HandleScope" = type { ptr, ptr, ptr }

; Function Attrs: mustprogress nounwind uwtable
define linkonce_odr dso_local noundef ptr @_ZN4node10BaseObject12FromJSObjectEN2v85LocalINS1_5ValueEEE(ptr %value.coerce) #4 comdat align 2 {
entry:
  %this.addr.i20 = alloca ptr, align 8
  %other.addr.i21 = alloca ptr, align 8
  %this.addr.i18 = alloca ptr, align 8
  %other.addr.i = alloca ptr, align 8
  %retval.i17 = alloca %"class.v8::Local", align 8
  %that.i = alloca %"class.v8::Local.301", align 8
  %ref.tmp.i = alloca %"class.v8::LocalBase", align 8
  %instance_type.addr.i = alloca i32, align 4
  %value.addr.i = alloca ptr, align 8
  %heap_object_ptr.addr.i12.i = alloca i64, align 8
  %offset.addr.i13.i = alloca i32, align 4
  %addr.i14.i = alloca i64, align 8
  %heap_object_ptr.addr.i2.i.i = alloca i64, align 8
  %offset.addr.i3.i.i = alloca i32, align 4
  %addr.i.i.i = alloca i64, align 8
  %heap_object_ptr.addr.i.i.i = alloca i64, align 8
  %offset.addr.i.i.i = alloca i32, align 4
  %obj.addr.i10.i = alloca i64, align 8
  %map.i.i = alloca i64, align 8
  %heap_object_ptr.addr.i8.i = alloca i64, align 8
  %offset.addr.i9.i = alloca i32, align 4
  %addr.i.i = alloca i64, align 8
  %isolate.addr.i.i = alloca ptr, align 8
  %heap_object_ptr.addr.i.i = alloca i64, align 8
  %offset.addr.i.i = alloca i32, align 4
  %obj.addr.i.i = alloca i64, align 8
  %retval.i13 = alloca ptr, align 8
  %this.addr.i14 = alloca ptr, align 8
  %index.addr.i = alloca i32, align 4
  %obj.i = alloca i64, align 8
  %instance_type.i = alloca i32, align 4
  %offset.i = alloca i32, align 4
  %isolate.i = alloca ptr, align 8
  %value.i = alloca i64, align 8
  %slot.addr.i = alloca ptr, align 8
  %this.addr.i.i = alloca ptr, align 8
  %this.addr.i11 = alloca ptr, align 8
  %this.addr.i8 = alloca ptr, align 8
  %retval.i = alloca %"class.v8::Local", align 8
  %this.addr.i = alloca ptr, align 8
  %agg.tmp.i = alloca %"class.v8::Local.301", align 8
  %value = alloca %"class.v8::Local.301", align 8
  %obj = alloca %"class.v8::Local", align 8
  %coerce.dive = getelementptr inbounds %"class.v8::Local.301", ptr %value, i32 0, i32 0
  %coerce.dive1 = getelementptr inbounds %"class.v8::LocalBase.302", ptr %coerce.dive, i32 0, i32 0
  %coerce.dive2 = getelementptr inbounds %"class.v8::IndirectHandleBase", ptr %coerce.dive1, i32 0, i32 0
  store ptr %value.coerce, ptr %coerce.dive2, align 8
  store ptr %value, ptr %this.addr.i, align 8
  %this1.i = load ptr, ptr %this.addr.i, align 8
  call void @llvm.memcpy.p0.p0.i64(ptr align 8 %agg.tmp.i, ptr align 8 %this1.i, i64 8, i1 false)
  %0 = load ptr, ptr %agg.tmp.i, align 8
  store ptr %0, ptr %that.i, align 8
  store ptr %ref.tmp.i, ptr %this.addr.i18, align 8
  store ptr %that.i, ptr %other.addr.i, align 8
  %this1.i19 = load ptr, ptr %this.addr.i18, align 8
  %1 = load ptr, ptr %other.addr.i, align 8
  call void @llvm.memcpy.p0.p0.i64(ptr align 8 %this1.i19, ptr align 8 %1, i64 8, i1 false)
  store ptr %retval.i17, ptr %this.addr.i20, align 8
  store ptr %ref.tmp.i, ptr %other.addr.i21, align 8
  %this1.i22 = load ptr, ptr %this.addr.i20, align 8
  %2 = load ptr, ptr %other.addr.i21, align 8
  call void @llvm.memcpy.p0.p0.i64(ptr align 8 %this1.i22, ptr align 8 %2, i64 8, i1 false)
  %3 = load ptr, ptr %retval.i17, align 8
  store ptr %3, ptr %retval.i, align 8
  %4 = load ptr, ptr %retval.i, align 8
  %coerce.dive3 = getelementptr inbounds %"class.v8::Local", ptr %obj, i32 0, i32 0
  %coerce.dive4 = getelementptr inbounds %"class.v8::LocalBase", ptr %coerce.dive3, i32 0, i32 0
  %coerce.dive5 = getelementptr inbounds %"class.v8::IndirectHandleBase", ptr %coerce.dive4, i32 0, i32 0
  store ptr %4, ptr %coerce.dive5, align 8
  store ptr %obj, ptr %this.addr.i8, align 8
  %this1.i9 = load ptr, ptr %this.addr.i8, align 8
  store ptr %this1.i9, ptr %this.addr.i11, align 8
  %this1.i12 = load ptr, ptr %this.addr.i11, align 8
  store ptr %this1.i12, ptr %this.addr.i.i, align 8
  %this1.i.i = load ptr, ptr %this.addr.i.i, align 8
  %5 = load ptr, ptr %this1.i.i, align 8
  store ptr %5, ptr %slot.addr.i, align 8
  %6 = load ptr, ptr %slot.addr.i, align 8
  store ptr %6, ptr %this.addr.i14, align 8
  store i32 1, ptr %index.addr.i, align 4
  %this1.i15 = load ptr, ptr %this.addr.i14, align 8
  store ptr %this1.i15, ptr %value.addr.i, align 8
  %7 = load ptr, ptr %value.addr.i, align 8
  %8 = load i64, ptr %7, align 8
  store i64 %8, ptr %obj.i, align 8
  %9 = load i64, ptr %obj.i, align 8
  store i64 %9, ptr %obj.addr.i10.i, align 8
  %10 = load i64, ptr %obj.addr.i10.i, align 8
  store i64 %10, ptr %heap_object_ptr.addr.i.i.i, align 8
  store i32 0, ptr %offset.addr.i.i.i, align 4
  %11 = load i64, ptr %heap_object_ptr.addr.i.i.i, align 8
  %12 = load i32, ptr %offset.addr.i.i.i, align 4
  store i64 %11, ptr %heap_object_ptr.addr.i2.i.i, align 8
  store i32 %12, ptr %offset.addr.i3.i.i, align 4
  %13 = load i64, ptr %heap_object_ptr.addr.i2.i.i, align 8
  %14 = load i32, ptr %offset.addr.i3.i.i, align 4
  %conv.i.i.i = sext i32 %14 to i64
  %add.i.i.i = add i64 %13, %conv.i.i.i
  %sub.i.i.i = sub i64 %add.i.i.i, 1
  store i64 %sub.i.i.i, ptr %addr.i.i.i, align 8
  %15 = load i64, ptr %addr.i.i.i, align 8
  %16 = inttoptr i64 %15 to ptr
  %17 = load i64, ptr %16, align 8
  store i64 %17, ptr %map.i.i, align 8
  %18 = load i64, ptr %map.i.i, align 8
  store i64 %18, ptr %heap_object_ptr.addr.i12.i, align 8
  store i32 12, ptr %offset.addr.i13.i, align 4
  %19 = load i64, ptr %heap_object_ptr.addr.i12.i, align 8
  %20 = load i32, ptr %offset.addr.i13.i, align 4
  %conv.i15.i = sext i32 %20 to i64
  %add.i16.i = add i64 %19, %conv.i15.i
  %sub.i17.i = sub i64 %add.i16.i, 1
  store i64 %sub.i17.i, ptr %addr.i14.i, align 8
  %21 = load i64, ptr %addr.i14.i, align 8
  %22 = inttoptr i64 %21 to ptr
  %23 = load i16, ptr %22, align 2
  %conv.i11.i = zext i16 %23 to i32
  store i32 %conv.i11.i, ptr %instance_type.i, align 4
  %24 = load i32, ptr %instance_type.i, align 4
  store i32 %24, ptr %instance_type.addr.i, align 4
  %25 = load i32, ptr %instance_type.addr.i, align 4
  %cmp.i = icmp eq i32 %25, 1040
  br i1 %cmp.i, label %_ZN2v88internal9Internals20CanHaveInternalFieldEi.exit, label %lor.rhs.i

lor.rhs.i:                                        ; preds = %entry
  %26 = load i32, ptr %instance_type.addr.i, align 4
  %sub.i = sub i32 %26, 1057
  %cmp1.i = icmp ule i32 %sub.i, 1001
  br label %_ZN2v88internal9Internals20CanHaveInternalFieldEi.exit

_ZN2v88internal9Internals20CanHaveInternalFieldEi.exit: ; preds = %lor.rhs.i, %entry
  %27 = phi i1 [ true, %entry ], [ %cmp1.i, %lor.rhs.i ]
  br i1 %27, label %if.then.i, label %if.end.i

if.then.i:                                        ; preds = %_ZN2v88internal9Internals20CanHaveInternalFieldEi.exit
  %28 = load i32, ptr %index.addr.i, align 4
  %mul.i = mul nsw i32 8, %28
  %add.i = add nsw i32 24, %mul.i
  store i32 %add.i, ptr %offset.i, align 4
  %29 = load i64, ptr %obj.i, align 8
  store i64 %29, ptr %obj.addr.i.i, align 8
  store ptr null, ptr %isolate.i, align 8
  %30 = load ptr, ptr %isolate.i, align 8
  %31 = load i64, ptr %obj.i, align 8
  %32 = load i32, ptr %offset.i, align 4
  store ptr %30, ptr %isolate.addr.i.i, align 8
  store i64 %31, ptr %heap_object_ptr.addr.i.i, align 8
  store i32 %32, ptr %offset.addr.i.i, align 4
  %33 = load i64, ptr %heap_object_ptr.addr.i.i, align 8
  %34 = load i32, ptr %offset.addr.i.i, align 4
  store i64 %33, ptr %heap_object_ptr.addr.i8.i, align 8
  store i32 %34, ptr %offset.addr.i9.i, align 4
  %35 = load i64, ptr %heap_object_ptr.addr.i8.i, align 8
  %36 = load i32, ptr %offset.addr.i9.i, align 4
  %conv.i.i = sext i32 %36 to i64
  %add.i.i = add i64 %35, %conv.i.i
  %sub.i.i = sub i64 %add.i.i, 1
  store i64 %sub.i.i, ptr %addr.i.i, align 8
  %37 = load i64, ptr %addr.i.i, align 8
  %38 = inttoptr i64 %37 to ptr
  %39 = load i64, ptr %38, align 8
  store i64 %39, ptr %value.i, align 8
  %40 = load i64, ptr %value.i, align 8
  %41 = inttoptr i64 %40 to ptr
  store ptr %41, ptr %retval.i13, align 8
  br label %_ZN2v86Object34GetAlignedPointerFromInternalFieldEi.exit

if.end.i:                                         ; preds = %_ZN2v88internal9Internals20CanHaveInternalFieldEi.exit
  %42 = load i32, ptr %index.addr.i, align 4
  %call7.i = call noundef ptr @_ZN2v86Object38SlowGetAlignedPointerFromInternalFieldEi(ptr noundef nonnull align 1 dereferenceable(1) %this1.i15, i32 noundef %42) #3
  store ptr %call7.i, ptr %retval.i13, align 8
  br label %_ZN2v86Object34GetAlignedPointerFromInternalFieldEi.exit

_ZN2v86Object34GetAlignedPointerFromInternalFieldEi.exit: ; preds = %if.end.i, %if.then.i
  %43 = load ptr, ptr %retval.i13, align 8
  ret ptr %43
}

; Function Attrs: mustprogress nounwind uwtable
define dso_local void @_ZN4node6crypto13DiffieHellman17VerifyErrorGetterERKN2v820FunctionCallbackInfoINS2_5ValueEEE(ptr noundef nonnull align 8 dereferenceable(20) %args) #4 align 2 {
entry:
  %value.addr.i49 = alloca i32, align 4
  %value.addr.i47 = alloca i64, align 8
  %this.addr.i12.i = alloca ptr, align 8
  %isolate.addr.i.i.i = alloca ptr, align 8
  %index.addr.i.i.i = alloca i32, align 4
  %addr.i.i.i = alloca i64, align 8
  %isolate.addr.i.i = alloca ptr, align 8
  %index.addr.i.i = alloca i32, align 4
  %this.addr.i10.i = alloca ptr, align 8
  %this.addr.i8.i = alloca ptr, align 8
  %this.addr.i.i40 = alloca ptr, align 8
  %handle.i = alloca %"class.v8::Local.565", align 8
  %this.addr.i41 = alloca ptr, align 8
  %value.addr.i38 = alloca i32, align 4
  %value.addr.i = alloca i64, align 8
  %this.addr.i35 = alloca ptr, align 8
  %slot.addr.i36 = alloca ptr, align 8
  %this.addr.i.i.i = alloca ptr, align 8
  %location.addr.i.i.i = alloca ptr, align 8
  %this.addr.i.i31 = alloca ptr, align 8
  %location.addr.i.i = alloca ptr, align 8
  %retval.i32 = alloca %"class.v8::LocalBase", align 8
  %slot.addr.i33 = alloca ptr, align 8
  %this.addr.i.i = alloca ptr, align 8
  %other.addr.i.i = alloca ptr, align 8
  %retval.i29 = alloca %"class.v8::Local", align 8
  %slot.addr.i = alloca ptr, align 8
  %ref.tmp.i = alloca %"class.v8::LocalBase", align 8
  %this.addr.i26 = alloca ptr, align 8
  %this.addr.i24 = alloca ptr, align 8
  %other.addr.i = alloca ptr, align 8
  %this.addr.i21 = alloca ptr, align 8
  %i.addr.i = alloca i32, align 4
  %agg.tmp.i = alloca %"class.v8::Local.565", align 8
  %this.addr.i18 = alloca ptr, align 8
  %retval.i15 = alloca %"class.v8::ReturnValue", align 8
  %this.addr.i16 = alloca ptr, align 8
  %that.i = alloca %"class.v8::Local", align 8
  %this.addr.i14 = alloca ptr, align 8
  %retval.i = alloca %"class.v8::Local", align 8
  %this.addr.i = alloca ptr, align 8
  %args.addr = alloca ptr, align 8
  %scope = alloca %"class.v8::HandleScope", align 8
  %diffieHellman = alloca ptr, align 8
  %agg.tmp = alloca %"class.v8::Local.301", align 8
  %agg.tmp1 = alloca %"class.v8::Local", align 8
  %cleanup.dest.slot = alloca i32, align 4
  %ref.tmp = alloca %"class.v8::ReturnValue", align 8
  store ptr %args, ptr %args.addr, align 8
  %0 = load ptr, ptr %args.addr, align 8
  store ptr %0, ptr %this.addr.i18, align 8
  %this1.i19 = load ptr, ptr %this.addr.i18, align 8
  %1 = load ptr, ptr %this1.i19, align 8
  %arrayidx.i20 = getelementptr inbounds i64, ptr %1, i64 1
  %2 = load ptr, ptr %arrayidx.i20, align 8
  call void @_ZN2v811HandleScopeC1EPNS_7IsolateE(ptr noundef nonnull align 8 dereferenceable(24) %scope, ptr noundef %2)
  br label %do.body

do.body:                                          ; preds = %entry
  %3 = load ptr, ptr %args.addr, align 8
  store ptr %3, ptr %this.addr.i, align 8
  %this1.i = load ptr, ptr %this.addr.i, align 8
  %4 = load ptr, ptr %this1.i, align 8
  store ptr %4, ptr %slot.addr.i, align 8
  %5 = load ptr, ptr %slot.addr.i, align 8
  store ptr %5, ptr %slot.addr.i33, align 8
  %6 = load ptr, ptr %slot.addr.i33, align 8
  store ptr %retval.i32, ptr %this.addr.i.i31, align 8
  store ptr %6, ptr %location.addr.i.i, align 8
  %this1.i.i34 = load ptr, ptr %this.addr.i.i31, align 8
  %7 = load ptr, ptr %location.addr.i.i, align 8
  store ptr %this1.i.i34, ptr %this.addr.i.i.i, align 8
  store ptr %7, ptr %location.addr.i.i.i, align 8
  %this1.i.i.i = load ptr, ptr %this.addr.i.i.i, align 8
  %8 = load ptr, ptr %location.addr.i.i.i, align 8
  store ptr %8, ptr %this1.i.i.i, align 8
  %9 = load ptr, ptr %retval.i32, align 8
  store ptr %9, ptr %ref.tmp.i, align 8
  store ptr %retval.i29, ptr %this.addr.i.i, align 8
  store ptr %ref.tmp.i, ptr %other.addr.i.i, align 8
  %this1.i.i = load ptr, ptr %this.addr.i.i, align 8
  %10 = load ptr, ptr %other.addr.i.i, align 8
  call void @llvm.memcpy.p0.p0.i64(ptr align 8 %this1.i.i, ptr align 8 %10, i64 8, i1 false)
  %11 = load ptr, ptr %retval.i29, align 8
  store ptr %11, ptr %retval.i, align 8
  %12 = load ptr, ptr %retval.i, align 8
  %coerce.dive = getelementptr inbounds %"class.v8::Local", ptr %agg.tmp1, i32 0, i32 0
  %coerce.dive3 = getelementptr inbounds %"class.v8::LocalBase", ptr %coerce.dive, i32 0, i32 0
  %coerce.dive4 = getelementptr inbounds %"class.v8::IndirectHandleBase", ptr %coerce.dive3, i32 0, i32 0
  store ptr %12, ptr %coerce.dive4, align 8
  %coerce.dive5 = getelementptr inbounds %"class.v8::Local", ptr %agg.tmp1, i32 0, i32 0
  %coerce.dive6 = getelementptr inbounds %"class.v8::LocalBase", ptr %coerce.dive5, i32 0, i32 0
  %coerce.dive7 = getelementptr inbounds %"class.v8::IndirectHandleBase", ptr %coerce.dive6, i32 0, i32 0
  %13 = load ptr, ptr %coerce.dive7, align 8
  store ptr %13, ptr %that.i, align 8
  store ptr %agg.tmp, ptr %this.addr.i14, align 8
  %this3.i = load ptr, ptr %this.addr.i14, align 8
  store ptr %this3.i, ptr %this.addr.i24, align 8
  store ptr %that.i, ptr %other.addr.i, align 8
  %this1.i25 = load ptr, ptr %this.addr.i24, align 8
  %14 = load ptr, ptr %other.addr.i, align 8
  call void @llvm.memcpy.p0.p0.i64(ptr align 8 %this1.i25, ptr align 8 %14, i64 8, i1 false)
  %coerce.dive8 = getelementptr inbounds %"class.v8::Local.301", ptr %agg.tmp, i32 0, i32 0
  %coerce.dive9 = getelementptr inbounds %"class.v8::LocalBase.302", ptr %coerce.dive8, i32 0, i32 0
  %coerce.dive10 = getelementptr inbounds %"class.v8::IndirectHandleBase", ptr %coerce.dive9, i32 0, i32 0
  %15 = load ptr, ptr %coerce.dive10, align 8
  %call11 = call noundef ptr @_ZN4node10BaseObject12FromJSObjectEN2v85LocalINS1_5ValueEEE(ptr %15)
  store ptr %call11, ptr %diffieHellman, align 8
  %16 = load ptr, ptr %diffieHellman, align 8
  %cmp = icmp eq ptr %16, null
  br i1 %cmp, label %if.then, label %if.end

if.then:                                          ; preds = %do.body
  store i32 1, ptr %cleanup.dest.slot, align 4
  br label %cleanup

if.end:                                           ; preds = %do.body
  br label %do.cond

do.cond:                                          ; preds = %if.end
  br label %do.end

do.end:                                           ; preds = %do.cond
  %17 = load ptr, ptr %args.addr, align 8
  store ptr %17, ptr %this.addr.i16, align 8
  %this1.i17 = load ptr, ptr %this.addr.i16, align 8
  %18 = load ptr, ptr %this1.i17, align 8
  %arrayidx.i = getelementptr inbounds i64, ptr %18, i64 3
  store ptr %retval.i15, ptr %this.addr.i35, align 8
  store ptr %arrayidx.i, ptr %slot.addr.i36, align 8
  %this1.i37 = load ptr, ptr %this.addr.i35, align 8
  %19 = load ptr, ptr %slot.addr.i36, align 8
  store ptr %19, ptr %this1.i37, align 8
  %20 = load ptr, ptr %retval.i15, align 8
  %coerce.dive13 = getelementptr inbounds %"class.v8::ReturnValue", ptr %ref.tmp, i32 0, i32 0
  store ptr %20, ptr %coerce.dive13, align 8
  %21 = load ptr, ptr %diffieHellman, align 8
  %verifyError_ = getelementptr inbounds %"class.node::crypto::DiffieHellman", ptr %21, i32 0, i32 1
  %22 = load i32, ptr %verifyError_, align 8
  store ptr %ref.tmp, ptr %this.addr.i21, align 8
  store i32 %22, ptr %i.addr.i, align 4
  %this1.i22 = load ptr, ptr %this.addr.i21, align 8
  %23 = load i32, ptr %i.addr.i, align 4
  %conv.i = sext i32 %23 to i64
  store i64 %conv.i, ptr %value.addr.i, align 8
  %24 = load i64, ptr %value.addr.i, align 8
  store i64 %24, ptr %value.addr.i47, align 8
  %25 = load i64, ptr %value.addr.i47, align 8
  %26 = load i64, ptr %value.addr.i47, align 8
  %conv.i48 = trunc i64 %26 to i32
  %conv1.i = sext i32 %conv.i48 to i64
  %cmp.i = icmp eq i64 %25, %conv1.i
  br i1 %cmp.i, label %if.then.i, label %if.end.i

if.then.i:                                        ; preds = %do.end
  %27 = load i32, ptr %i.addr.i, align 4
  store i32 %27, ptr %value.addr.i38, align 4
  %28 = load i32, ptr %value.addr.i38, align 4
  store i32 %28, ptr %value.addr.i49, align 4
  %29 = load i32, ptr %value.addr.i49, align 4
  %conv.i50 = sext i32 %29 to i64
  %shl.i = shl i64 %conv.i50, 32
  %30 = load ptr, ptr %this1.i22, align 8
  store i64 %shl.i, ptr %30, align 8
  br label %_ZN2v811ReturnValueINS_5ValueEE3SetEi.exit

if.end.i:                                         ; preds = %do.end
  store ptr %this1.i22, ptr %this.addr.i26, align 8
  %this1.i27 = load ptr, ptr %this.addr.i26, align 8
  %31 = load ptr, ptr %this1.i27, align 8
  %arrayidx.i28 = getelementptr inbounds i64, ptr %31, i64 -2
  %32 = load ptr, ptr %arrayidx.i28, align 8
  %33 = load i32, ptr %i.addr.i, align 4
  %call6.i = call ptr @_ZN2v87Integer3NewEPNS_7IsolateEi(ptr noundef %32, i32 noundef %33) #3
  store ptr %call6.i, ptr %agg.tmp.i, align 8
  %34 = load ptr, ptr %agg.tmp.i, align 8
  store ptr %34, ptr %handle.i, align 8
  store ptr %this1.i22, ptr %this.addr.i41, align 8
  %this3.i42 = load ptr, ptr %this.addr.i41, align 8
  store ptr %handle.i, ptr %this.addr.i.i40, align 8
  %this1.i.i43 = load ptr, ptr %this.addr.i.i40, align 8
  %35 = load ptr, ptr %this1.i.i43, align 8
  %cmp.i.i = icmp eq ptr %35, null
  br i1 %cmp.i.i, label %if.then.i46, label %if.else.i

if.then.i46:                                      ; preds = %if.end.i
  store ptr %this3.i42, ptr %this.addr.i8.i, align 8
  %this1.i9.i = load ptr, ptr %this.addr.i8.i, align 8
  store ptr %this1.i9.i, ptr %this.addr.i12.i, align 8
  %this1.i13.i = load ptr, ptr %this.addr.i12.i, align 8
  %36 = load ptr, ptr %this1.i13.i, align 8
  %arrayidx.i.i = getelementptr inbounds i64, ptr %36, i64 -2
  %37 = load ptr, ptr %arrayidx.i.i, align 8
  store ptr %37, ptr %isolate.addr.i.i, align 8
  store i32 5, ptr %index.addr.i.i, align 4
  %38 = load ptr, ptr %isolate.addr.i.i, align 8
  %39 = load i32, ptr %index.addr.i.i, align 4
  store ptr %38, ptr %isolate.addr.i.i.i, align 8
  store i32 %39, ptr %index.addr.i.i.i, align 4
  %40 = load ptr, ptr %isolate.addr.i.i.i, align 8
  %41 = ptrtoint ptr %40 to i64
  %add.i.i.i = add i64 %41, 576
  %42 = load i32, ptr %index.addr.i.i.i, align 4
  %mul.i.i.i = mul nsw i32 %42, 8
  %conv.i.i.i = sext i32 %mul.i.i.i to i64
  %add1.i.i.i = add i64 %add.i.i.i, %conv.i.i.i
  store i64 %add1.i.i.i, ptr %addr.i.i.i, align 8
  %43 = load i64, ptr %addr.i.i.i, align 8
  %44 = inttoptr i64 %43 to ptr
  %45 = load i64, ptr %44, align 8
  %46 = load ptr, ptr %this3.i42, align 8
  store i64 %45, ptr %46, align 8
  br label %_ZN2v811ReturnValueINS_5ValueEE3SetINS_7IntegerEEEvNS_5LocalIT_EE.exit

if.else.i:                                        ; preds = %if.end.i
  store ptr %handle.i, ptr %this.addr.i10.i, align 8
  %this1.i11.i = load ptr, ptr %this.addr.i10.i, align 8
  %47 = load ptr, ptr %this1.i11.i, align 8
  %48 = load i64, ptr %47, align 8
  %49 = load ptr, ptr %this3.i42, align 8
  store i64 %48, ptr %49, align 8
  br label %_ZN2v811ReturnValueINS_5ValueEE3SetINS_7IntegerEEEvNS_5LocalIT_EE.exit

_ZN2v811ReturnValueINS_5ValueEE3SetINS_7IntegerEEEvNS_5LocalIT_EE.exit: ; preds = %if.else.i, %if.then.i46
  br label %_ZN2v811ReturnValueINS_5ValueEE3SetEi.exit

_ZN2v811ReturnValueINS_5ValueEE3SetEi.exit:       ; preds = %_ZN2v811ReturnValueINS_5ValueEE3SetINS_7IntegerEEEvNS_5LocalIT_EE.exit, %if.then.i
  store i32 0, ptr %cleanup.dest.slot, align 4
  br label %cleanup

cleanup:                                          ; preds = %_ZN2v811ReturnValueINS_5ValueEE3SetEi.exit, %if.then
  call void @_ZN2v811HandleScopeD1Ev(ptr noundef nonnull align 8 dereferenceable(24) %scope) #3
  %cleanup.dest = load i32, ptr %cleanup.dest.slot, align 4
  switch i32 %cleanup.dest, label %unreachable [
    i32 0, label %cleanup.cont
    i32 1, label %cleanup.cont
  ]

cleanup.cont:                                     ; preds = %cleanup, %cleanup
  ret void

unreachable:                                      ; preds = %cleanup
  unreachable
}