; Function Attrs: mustprogress nounwind uwtable
define dso_local void @_ZN4node6crypto13DiffieHellman17VerifyErrorGetterERKN2v820FunctionCallbackInfoINS2_5ValueEEE(ptr nocapture noundef nonnull readonly align 8 dereferenceable(20) %args) #3 align 2 {
entry:
  %scope = alloca %"class.v8::HandleScope", align 8
  %0 = load ptr, ptr %args, align 8
  %arrayidx.i20 = getelementptr inbounds i8, ptr %0, i64 8
  %1 = load ptr, ptr %arrayidx.i20, align 8
  call void @_ZN2v811HandleScopeC1EPNS_7IsolateE(ptr noundef nonnull align 8 dereferenceable(24) %scope, ptr noundef %1) #18
  %2 = load ptr, ptr %args, align 8
  %3 = load i64, ptr %2, align 8
  %sub.i.i.i.i = add i64 %3, -1
  %4 = inttoptr i64 %sub.i.i.i.i to ptr
  %5 = load i64, ptr %4, align 8
  %sub.i17.i.i = add i64 %5, 11
  %6 = inttoptr i64 %sub.i17.i.i to ptr
  %7 = load i16, ptr %6, align 2
  %conv.i11.i.i = zext i16 %7 to i32
  %cmp.i.i = icmp eq i16 %7, 1040
  %sub.i.i = add nsw i32 %conv.i11.i.i, -1057
  %cmp1.i.i = icmp ult i32 %sub.i.i, 1002
  %8 = select i1 %cmp.i.i, i1 true, i1 %cmp1.i.i
  br i1 %8, label %if.then.i.i, label %if.end.i.i

if.then.i.i:                                      ; preds = %entry
  %sub.i.i.i = add i64 %3, 31
  %9 = inttoptr i64 %sub.i.i.i to ptr
  %10 = load i64, ptr %9, align 8
  %11 = inttoptr i64 %10 to ptr
  br label %_ZN4node10BaseObject12FromJSObjectEN2v85LocalINS1_5ValueEEE.exit

if.end.i.i:                                       ; preds = %entry
  %call7.i.i = call noundef ptr @_ZN2v86Object38SlowGetAlignedPointerFromInternalFieldEi(ptr noundef nonnull align 1 dereferenceable(1) %2, i32 noundef 1) #18
  br label %_ZN4node10BaseObject12FromJSObjectEN2v85LocalINS1_5ValueEEE.exit

_ZN4node10BaseObject12FromJSObjectEN2v85LocalINS1_5ValueEEE.exit: ; preds = %if.then.i.i, %if.end.i.i
  %retval.i13.0.i = phi ptr [ %11, %if.then.i.i ], [ %call7.i.i, %if.end.i.i ]
  %cmp = icmp eq ptr %retval.i13.0.i, null
  br i1 %cmp, label %cleanup, label %if.then.i

if.then.i:                                        ; preds = %_ZN4node10BaseObject12FromJSObjectEN2v85LocalINS1_5ValueEEE.exit
  %verifyError_ = getelementptr inbounds i8, ptr %retval.i13.0.i, i64 32
  %12 = load i32, ptr %verifyError_, align 8
  %conv.i = sext i32 %12 to i64
  %13 = load ptr, ptr %args, align 8
  %arrayidx.i = getelementptr inbounds i8, ptr %13, i64 24
  %shl.i = shl nsw i64 %conv.i, 32
  store i64 %shl.i, ptr %arrayidx.i, align 8
  br label %cleanup

cleanup:                                          ; preds = %_ZN4node10BaseObject12FromJSObjectEN2v85LocalINS1_5ValueEEE.exit, %if.then.i
  call void @_ZN2v811HandleScopeD1Ev(ptr noundef nonnull align 8 dereferenceable(24) %scope) #18
  ret void
}